target datalayout = "e-m:e-p270:32:32-p271:32:32-p272:64:64-i64:64-i128:128-f80:128-n8:16:32:64-S128"
target triple = "x86_64-pc-linux-gnu"

%"class.nlsat::evaluator" = type { ptr }
%class.obj_ref = type { ptr, ptr }
%"class.nlsat::atom" = type { i32, i32, i32, i32 }

; Function Attrs: inlinehint mustprogress nounwind uwtable
define linkonce_odr hidden noundef ptr @_ZN5nlsat12to_root_atomEPNS_4atomE(ptr noundef %0) #8 comdat {
  %2 = alloca ptr, align 8
  store ptr %0, ptr %2, align 8, !tbaa !56
  %3 = load ptr, ptr %2, align 8, !tbaa !56
  ret ptr %3
}

; Function Attrs: inlinehint mustprogress nounwind uwtable
define linkonce_odr hidden noundef ptr @_ZN5nlsat12to_ineq_atomEPNS_4atomE(ptr noundef %0) #8 comdat {
  %2 = alloca ptr, align 8
  store ptr %0, ptr %2, align 8, !tbaa !56
  %3 = load ptr, ptr %2, align 8, !tbaa !56
  ret ptr %3
}

; Function Attrs: mustprogress nounwind uwtable
define linkonce_odr hidden noundef zeroext i1 @_ZNK5nlsat4atom12is_ineq_atomEv(ptr noundef nonnull align 4 dereferenceable(16) %0) #4 comdat align 2 {
  %2 = alloca ptr, align 8
  store ptr %0, ptr %2, align 8, !tbaa !56
  %3 = load ptr, ptr %2, align 8
  %4 = getelementptr inbounds nuw %"class.nlsat::atom", ptr %3, i32 0, i32 0
  %5 = load i32, ptr %4, align 4, !tbaa !97
  %6 = icmp sle i32 %5, 2
  ret i1 %6
}

; Function Attrs: mustprogress uwtable
define linkonce_odr hidden void @_ZN5nlsat9evaluator3imp20infeasible_intervalsEPNS_4atomEbPKNS_6clauseE(ptr dead_on_unwind noalias writable sret(%class.obj_ref) align 8 %0, ptr noundef nonnull align 8 dereferenceable(192) %1, ptr noundef %2, i1 noundef zeroext %3, ptr noundef %4) #6 comdat align 2 {
  %6 = alloca ptr, align 8
  %7 = alloca ptr, align 8
  %8 = alloca ptr, align 8
  %9 = alloca i8, align 1
  %10 = alloca ptr, align 8
  store ptr %0, ptr %6, align 8
  store ptr %1, ptr %7, align 8, !tbaa !29
  store ptr %2, ptr %8, align 8, !tbaa !56
  %11 = zext i1 %3 to i8
  store i8 %11, ptr %9, align 1, !tbaa !10
  store ptr %4, ptr %10, align 8, !tbaa !58
  %12 = load ptr, ptr %7, align 8
  %13 = load ptr, ptr %8, align 8, !tbaa !56
  %14 = call noundef zeroext i1 @_ZNK5nlsat4atom12is_ineq_atomEv(ptr noundef nonnull align 4 dereferenceable(16) %13)
  br i1 %14, label %15, label %21

15:                                               ; preds = %5
  %16 = load ptr, ptr %8, align 8, !tbaa !56
  %17 = call noundef ptr @_ZN5nlsat12to_ineq_atomEPNS_4atomE(ptr noundef %16)
  %18 = load i8, ptr %9, align 1, !tbaa !10, !range !12, !noundef !13
  %19 = trunc i8 %18 to i1
  %20 = load ptr, ptr %10, align 8, !tbaa !58
  call void @_ZN5nlsat9evaluator3imp20infeasible_intervalsEPNS_9ineq_atomEbPKNS_6clauseE(ptr dead_on_unwind writable sret(%class.obj_ref) align 8 %0, ptr noundef nonnull align 8 dereferenceable(192) %12, ptr noundef %17, i1 noundef zeroext %19, ptr noundef %20)
  br label %27

21:                                               ; preds = %5
  %22 = load ptr, ptr %8, align 8, !tbaa !56
  %23 = call noundef ptr @_ZN5nlsat12to_root_atomEPNS_4atomE(ptr noundef %22)
  %24 = load i8, ptr %9, align 1, !tbaa !10, !range !12, !noundef !13
  %25 = trunc i8 %24 to i1
  %26 = load ptr, ptr %10, align 8, !tbaa !58
  call void @_ZN5nlsat9evaluator3imp20infeasible_intervalsEPNS_9root_atomEbPKNS_6clauseE(ptr dead_on_unwind writable sret(%class.obj_ref) align 8 %0, ptr noundef nonnull align 8 dereferenceable(192) %12, ptr noundef %23, i1 noundef zeroext %25, ptr noundef %26)
  br label %27

27:                                               ; preds = %21, %15
  ret void
}

; Function Attrs: mustprogress uwtable
define hidden void @_ZN5nlsat9evaluator20infeasible_intervalsEPNS_4atomEbPKNS_6clauseE(ptr dead_on_unwind noalias writable sret(%class.obj_ref) align 8 %0, ptr noundef nonnull align 8 dereferenceable(8) %1, ptr noundef %2, i1 noundef zeroext %3, ptr noundef %4) #6 align 2 {
  %6 = alloca ptr, align 8
  %7 = alloca ptr, align 8
  %8 = alloca ptr, align 8
  %9 = alloca i8, align 1
  %10 = alloca ptr, align 8
  store ptr %0, ptr %6, align 8
  store ptr %1, ptr %7, align 8, !tbaa !16
  store ptr %2, ptr %8, align 8, !tbaa !56
  %11 = zext i1 %3 to i8
  store i8 %11, ptr %9, align 1, !tbaa !10
  store ptr %4, ptr %10, align 8, !tbaa !58
  %12 = load ptr, ptr %7, align 8
  %13 = getelementptr inbounds nuw %"class.nlsat::evaluator", ptr %12, i32 0, i32 0
  %14 = load ptr, ptr %13, align 8, !tbaa !26
  %15 = load ptr, ptr %8, align 8, !tbaa !56
  %16 = load i8, ptr %9, align 1, !tbaa !10, !range !12, !noundef !13
  %17 = trunc i8 %16 to i1
  %18 = load ptr, ptr %10, align 8, !tbaa !58
  call void @_ZN5nlsat9evaluator3imp20infeasible_intervalsEPNS_4atomEbPKNS_6clauseE(ptr dead_on_unwind writable sret(%class.obj_ref) align 8 %0, ptr noundef nonnull align 8 dereferenceable(192) %14, ptr noundef %15, i1 noundef zeroext %17, ptr noundef %18)
  ret void
}