; Function Attrs: mustprogress uwtable
define hidden void @_ZN5nlsat9evaluator20infeasible_intervalsEPNS_4atomEbPKNS_6clauseE(ptr dead_on_unwind noalias writable sret(%class.obj_ref) align 8 %0, ptr noundef nonnull readonly align 8 captures(none) dereferenceable(8) %1, ptr noundef %2, i1 noundef zeroext %3, ptr noundef %4) local_unnamed_addr #4 align 2 {
  %6 = load ptr, ptr %1, align 8, !tbaa !42
  %7 = load i32, ptr %2, align 4, !tbaa !45, !noalias !48
  %8 = icmp slt i32 %7, 3
  br i1 %8, label %9, label %10

9:                                                ; preds = %5
  tail call void @_ZN5nlsat9evaluator3imp20infeasible_intervalsEPNS_9ineq_atomEbPKNS_6clauseE(ptr dead_on_unwind writable sret(%class.obj_ref) align 8 %0, ptr noundef nonnull align 8 dereferenceable(192) %6, ptr noundef nonnull %2, i1 noundef zeroext %3, ptr noundef %4)
  br label %_ZN5nlsat9evaluator3imp20infeasible_intervalsEPNS_4atomEbPKNS_6clauseE.exit

10:                                               ; preds = %5
  tail call void @_ZN5nlsat9evaluator3imp20infeasible_intervalsEPNS_9root_atomEbPKNS_6clauseE(ptr dead_on_unwind writable sret(%class.obj_ref) align 8 %0, ptr noundef nonnull align 8 dereferenceable(192) %6, ptr noundef nonnull %2, i1 noundef zeroext %3, ptr noundef %4)
  br label %_ZN5nlsat9evaluator3imp20infeasible_intervalsEPNS_4atomEbPKNS_6clauseE.exit

_ZN5nlsat9evaluator3imp20infeasible_intervalsEPNS_4atomEbPKNS_6clauseE.exit: ; preds = %9, %10
  ret void
}